target datalayout = "e-m:e-p270:32:32-p271:32:32-p272:64:64-i64:64-i128:128-f80:128-n8:16:32:64-S128"
target triple = "x86_64-pc-linux-gnu"

%"struct.lodepng::LodePNGICCCurve" = type { i32, ptr, i64, float, float, float, float, float, float, float }
%"struct.lodepng::LodePNGICC" = type { i32, i32, i32, i32, [3 x float], i32, [9 x float], i32, [3 x float], i32, [3 x float], [3 x float], [3 x float], i32, [3 x %"struct.lodepng::LodePNGICCCurve"] }

; Function Attrs: mustprogress nounwind uwtable
define internal void @_ZN7lodepngL9mulMatrixEPfS0_S0_PKfddd(ptr noundef %0, ptr noundef %1, ptr noundef %2, ptr noundef %3, double noundef %4, double noundef %5, double noundef %6) #3 {
  %8 = alloca ptr, align 8
  %9 = alloca ptr, align 8
  %10 = alloca ptr, align 8
  %11 = alloca ptr, align 8
  %12 = alloca double, align 8
  %13 = alloca double, align 8
  %14 = alloca double, align 8
  store ptr %0, ptr %8, align 8, !tbaa !87
  store ptr %1, ptr %9, align 8, !tbaa !87
  store ptr %2, ptr %10, align 8, !tbaa !87
  store ptr %3, ptr %11, align 8, !tbaa !87
  store double %4, ptr %12, align 8, !tbaa !182
  store double %5, ptr %13, align 8, !tbaa !182
  store double %6, ptr %14, align 8, !tbaa !182
  %15 = load double, ptr %12, align 8, !tbaa !182
  %16 = load ptr, ptr %11, align 8, !tbaa !87
  %17 = getelementptr inbounds float, ptr %16, i64 0
  %18 = load float, ptr %17, align 4, !tbaa !100
  %19 = fpext float %18 to double
  %20 = load double, ptr %13, align 8, !tbaa !182
  %21 = load ptr, ptr %11, align 8, !tbaa !87
  %22 = getelementptr inbounds float, ptr %21, i64 1
  %23 = load float, ptr %22, align 4, !tbaa !100
  %24 = fpext float %23 to double
  %25 = fmul double %20, %24
  %26 = call double @llvm.fmuladd.f64(double %15, double %19, double %25)
  %27 = load double, ptr %14, align 8, !tbaa !182
  %28 = load ptr, ptr %11, align 8, !tbaa !87
  %29 = getelementptr inbounds float, ptr %28, i64 2
  %30 = load float, ptr %29, align 4, !tbaa !100
  %31 = fpext float %30 to double
  %32 = call double @llvm.fmuladd.f64(double %27, double %31, double %26)
  %33 = fptrunc double %32 to float
  %34 = load ptr, ptr %8, align 8, !tbaa !87
  store float %33, ptr %34, align 4, !tbaa !100
  %35 = load double, ptr %12, align 8, !tbaa !182
  %36 = load ptr, ptr %11, align 8, !tbaa !87
  %37 = getelementptr inbounds float, ptr %36, i64 3
  %38 = load float, ptr %37, align 4, !tbaa !100
  %39 = fpext float %38 to double
  %40 = load double, ptr %13, align 8, !tbaa !182
  %41 = load ptr, ptr %11, align 8, !tbaa !87
  %42 = getelementptr inbounds float, ptr %41, i64 4
  %43 = load float, ptr %42, align 4, !tbaa !100
  %44 = fpext float %43 to double
  %45 = fmul double %40, %44
  %46 = call double @llvm.fmuladd.f64(double %35, double %39, double %45)
  %47 = load double, ptr %14, align 8, !tbaa !182
  %48 = load ptr, ptr %11, align 8, !tbaa !87
  %49 = getelementptr inbounds float, ptr %48, i64 5
  %50 = load float, ptr %49, align 4, !tbaa !100
  %51 = fpext float %50 to double
  %52 = call double @llvm.fmuladd.f64(double %47, double %51, double %46)
  %53 = fptrunc double %52 to float
  %54 = load ptr, ptr %9, align 8, !tbaa !87
  store float %53, ptr %54, align 4, !tbaa !100
  %55 = load double, ptr %12, align 8, !tbaa !182
  %56 = load ptr, ptr %11, align 8, !tbaa !87
  %57 = getelementptr inbounds float, ptr %56, i64 6
  %58 = load float, ptr %57, align 4, !tbaa !100
  %59 = fpext float %58 to double
  %60 = load double, ptr %13, align 8, !tbaa !182
  %61 = load ptr, ptr %11, align 8, !tbaa !87
  %62 = getelementptr inbounds float, ptr %61, i64 7
  %63 = load float, ptr %62, align 4, !tbaa !100
  %64 = fpext float %63 to double
  %65 = fmul double %60, %64
  %66 = call double @llvm.fmuladd.f64(double %55, double %59, double %65)
  %67 = load double, ptr %14, align 8, !tbaa !182
  %68 = load ptr, ptr %11, align 8, !tbaa !87
  %69 = getelementptr inbounds float, ptr %68, i64 8
  %70 = load float, ptr %69, align 4, !tbaa !100
  %71 = fpext float %70 to double
  %72 = call double @llvm.fmuladd.f64(double %67, double %71, double %66)
  %73 = fptrunc double %72 to float
  %74 = load ptr, ptr %10, align 8, !tbaa !87
  store float %73, ptr %74, align 4, !tbaa !100
  ret void
}

; Function Attrs: mustprogress nounwind uwtable
define internal noundef i32 @_ZN7lodepngL14lodepng_muloflEmmPm(i64 noundef %0, i64 noundef %1, ptr noundef %2) #3 {
  %4 = alloca i64, align 8
  %5 = alloca i64, align 8
  %6 = alloca ptr, align 8
  store i64 %0, ptr %4, align 8, !tbaa !15
  store i64 %1, ptr %5, align 8, !tbaa !15
  store ptr %2, ptr %6, align 8, !tbaa !37
  %7 = load i64, ptr %4, align 8, !tbaa !15
  %8 = load i64, ptr %5, align 8, !tbaa !15
  %9 = mul i64 %7, %8
  %10 = load ptr, ptr %6, align 8, !tbaa !37
  store i64 %9, ptr %10, align 8, !tbaa !15
  %11 = load i64, ptr %4, align 8, !tbaa !15
  %12 = icmp ne i64 %11, 0
  br i1 %12, label %13, label %20

13:                                               ; preds = %3
  %14 = load ptr, ptr %6, align 8, !tbaa !37
  %15 = load i64, ptr %14, align 8, !tbaa !15
  %16 = load i64, ptr %4, align 8, !tbaa !15
  %17 = udiv i64 %15, %16
  %18 = load i64, ptr %5, align 8, !tbaa !15
  %19 = icmp ne i64 %17, %18
  br label %20

20:                                               ; preds = %13, %3
  %21 = phi i1 [ false, %3 ], [ %19, %13 ]
  %22 = zext i1 %21 to i32
  ret i32 %22
}

; Function Attrs: mustprogress uwtable
define internal noundef i32 @_ZN7lodepngL17convertToXYZ_chrmEPfjjPK11LodePNGInfojPKNS_10LodePNGICCES0_(ptr noundef %0, i32 noundef %1, i32 noundef %2, ptr noundef %3, i32 noundef %4, ptr noundef %5, ptr noundef %6) #0 {
  %8 = alloca i32, align 4
  %9 = alloca ptr, align 8
  %10 = alloca i32, align 4
  %11 = alloca i32, align 4
  %12 = alloca ptr, align 8
  %13 = alloca i32, align 4
  %14 = alloca ptr, align 8
  %15 = alloca ptr, align 8
  %16 = alloca i32, align 4
  %17 = alloca i64, align 8
  %18 = alloca i64, align 8
  %19 = alloca [9 x float], align 16
  %20 = alloca i32, align 4
  %21 = alloca i64, align 8
  store ptr %0, ptr %9, align 8, !tbaa !87
  store i32 %1, ptr %10, align 4, !tbaa !9
  store i32 %2, ptr %11, align 4, !tbaa !9
  store ptr %3, ptr %12, align 8, !tbaa !92
  store i32 %4, ptr %13, align 4, !tbaa !9
  store ptr %5, ptr %14, align 8, !tbaa !81
  store ptr %6, ptr %15, align 8, !tbaa !87
  call void @llvm.lifetime.start.p0(i64 4, ptr %16) #19
  store i32 0, ptr %16, align 4, !tbaa !9
  call void @llvm.lifetime.start.p0(i64 8, ptr %17) #19
  call void @llvm.lifetime.start.p0(i64 8, ptr %18) #19
  call void @llvm.lifetime.start.p0(i64 36, ptr %19) #19
  %22 = load i32, ptr %10, align 4, !tbaa !9
  %23 = zext i32 %22 to i64
  %24 = load i32, ptr %11, align 4, !tbaa !9
  %25 = zext i32 %24 to i64
  %26 = call noundef i32 @_ZN7lodepngL14lodepng_muloflEmmPm(i64 noundef %23, i64 noundef %25, ptr noundef %18)
  %27 = icmp ne i32 %26, 0
  br i1 %27, label %28, label %29

28:                                               ; preds = %7
  store i32 92, ptr %8, align 4
  store i32 1, ptr %20, align 4
  br label %92

29:                                               ; preds = %7
  %30 = getelementptr inbounds [9 x float], ptr %19, i64 0, i64 0
  %31 = load ptr, ptr %15, align 8, !tbaa !87
  %32 = load i32, ptr %13, align 4, !tbaa !9
  %33 = load ptr, ptr %14, align 8, !tbaa !81
  %34 = load ptr, ptr %12, align 8, !tbaa !92
  %35 = call noundef i32 @_ZN7lodepngL7getChrmEPfS0_jPKNS_10LodePNGICCEPK11LodePNGInfo(ptr noundef %30, ptr noundef %31, i32 noundef %32, ptr noundef %33, ptr noundef %34)
  store i32 %35, ptr %16, align 4, !tbaa !9
  %36 = load i32, ptr %16, align 4, !tbaa !9
  %37 = icmp ne i32 %36, 0
  br i1 %37, label %38, label %40

38:                                               ; preds = %29
  %39 = load i32, ptr %16, align 4, !tbaa !9
  store i32 %39, ptr %8, align 4
  store i32 1, ptr %20, align 4
  br label %92

40:                                               ; preds = %29
  %41 = load i32, ptr %13, align 4, !tbaa !9
  %42 = icmp ne i32 %41, 0
  br i1 %42, label %43, label %48

43:                                               ; preds = %40
  %44 = load ptr, ptr %14, align 8, !tbaa !81
  %45 = getelementptr inbounds nuw %"struct.lodepng::LodePNGICC", ptr %44, i32 0, i32 0
  %46 = load i32, ptr %45, align 8, !tbaa !98
  %47 = icmp eq i32 %46, 2
  br i1 %47, label %48, label %91

48:                                               ; preds = %43, %40
  store i64 0, ptr %17, align 8, !tbaa !15
  br label %49

49:                                               ; preds = %87, %48
  %50 = load i64, ptr %17, align 8, !tbaa !15
  %51 = load i64, ptr %18, align 8, !tbaa !15
  %52 = icmp ult i64 %50, %51
  br i1 %52, label %53, label %90

53:                                               ; preds = %49
  call void @llvm.lifetime.start.p0(i64 8, ptr %21) #19
  %54 = load i64, ptr %17, align 8, !tbaa !15
  %55 = mul i64 %54, 4
  store i64 %55, ptr %21, align 8, !tbaa !15
  %56 = load ptr, ptr %9, align 8, !tbaa !87
  %57 = load i64, ptr %21, align 8, !tbaa !15
  %58 = add i64 %57, 0
  %59 = getelementptr inbounds nuw float, ptr %56, i64 %58
  %60 = load ptr, ptr %9, align 8, !tbaa !87
  %61 = load i64, ptr %21, align 8, !tbaa !15
  %62 = add i64 %61, 1
  %63 = getelementptr inbounds nuw float, ptr %60, i64 %62
  %64 = load ptr, ptr %9, align 8, !tbaa !87
  %65 = load i64, ptr %21, align 8, !tbaa !15
  %66 = add i64 %65, 2
  %67 = getelementptr inbounds nuw float, ptr %64, i64 %66
  %68 = getelementptr inbounds [9 x float], ptr %19, i64 0, i64 0
  %69 = load ptr, ptr %9, align 8, !tbaa !87
  %70 = load i64, ptr %21, align 8, !tbaa !15
  %71 = add i64 %70, 0
  %72 = getelementptr inbounds nuw float, ptr %69, i64 %71
  %73 = load float, ptr %72, align 4, !tbaa !100
  %74 = fpext float %73 to double
  %75 = load ptr, ptr %9, align 8, !tbaa !87
  %76 = load i64, ptr %21, align 8, !tbaa !15
  %77 = add i64 %76, 1
  %78 = getelementptr inbounds nuw float, ptr %75, i64 %77
  %79 = load float, ptr %78, align 4, !tbaa !100
  %80 = fpext float %79 to double
  %81 = load ptr, ptr %9, align 8, !tbaa !87
  %82 = load i64, ptr %21, align 8, !tbaa !15
  %83 = add i64 %82, 2
  %84 = getelementptr inbounds nuw float, ptr %81, i64 %83
  %85 = load float, ptr %84, align 4, !tbaa !100
  %86 = fpext float %85 to double
  call void @_ZN7lodepngL9mulMatrixEPfS0_S0_PKfddd(ptr noundef %59, ptr noundef %63, ptr noundef %67, ptr noundef %68, double noundef %74, double noundef %80, double noundef %86)
  call void @llvm.lifetime.end.p0(i64 8, ptr %21) #19
  br label %87

87:                                               ; preds = %53
  %88 = load i64, ptr %17, align 8, !tbaa !15
  %89 = add i64 %88, 1
  store i64 %89, ptr %17, align 8, !tbaa !15
  br label %49, !llvm.loop !128

90:                                               ; preds = %49
  br label %91

91:                                               ; preds = %90, %43
  store i32 0, ptr %8, align 4
  store i32 1, ptr %20, align 4
  br label %92

92:                                               ; preds = %91, %38, %28
  call void @llvm.lifetime.end.p0(i64 36, ptr %19) #19
  call void @llvm.lifetime.end.p0(i64 8, ptr %18) #19
  call void @llvm.lifetime.end.p0(i64 8, ptr %17) #19
  call void @llvm.lifetime.end.p0(i64 4, ptr %16) #19
  %93 = load i32, ptr %8, align 4
  ret i32 %93
}