; Function Attrs: mustprogress nofree norecurse nosync nounwind memory(argmem: readwrite) uwtable
define internal fastcc noundef range(i32 0, 2) i32 @_ZN7lodepngL17convertToXYZ_chrmEPfjjPK11LodePNGInfojPKNS_10LodePNGICCES0_(ptr noundef captures(none) %0, i32 noundef %1, i32 noundef %2, ptr noundef readonly captures(none) %3, i32 noundef range(i32 0, 2) %4, ptr noundef nonnull readonly captures(none) %5, ptr noundef writeonly captures(none) %6) unnamed_addr #11 {
  %8 = alloca [9 x float], align 16
  call void @llvm.lifetime.start.p0(i64 36, ptr nonnull %8) #27
  %9 = zext i32 %1 to i64
  %10 = zext i32 %2 to i64
  %mul.i29 = mul nuw i64 %10, %9
  %11 = call fastcc noundef i32 @_ZN7lodepngL7getChrmEPfS0_jPKNS_10LodePNGICCEPK11LodePNGInfo(ptr noundef %8, ptr noundef %6, i32 noundef %4, ptr noundef %5, ptr noundef %3)
  %.not27 = icmp eq i32 %11, 0
  br i1 %.not27, label %12, label %.loopexit

12:                                               ; preds = %7
  %.not28 = icmp eq i32 %4, 0
  br i1 %.not28, label %17, label %13

13:                                               ; preds = %12
  %14 = load i32, ptr %5, align 8, !tbaa !74
  %15 = icmp eq i32 %14, 2
  %16 = icmp ne i64 %mul.i29, 0
  %or.cond = select i1 %15, i1 %16, i1 false
  br i1 %or.cond, label %.lr.ph, label %.loopexit

17:                                               ; preds = %12
  %.old.not = icmp eq i64 %mul.i29, 0
  br i1 %.old.not, label %.loopexit, label %.lr.ph

.lr.ph:                                           ; preds = %13, %17
  %18 = load float, ptr %8, align 16, !tbaa !79
  %19 = fpext float %18 to double
  %20 = getelementptr inbounds nuw i8, ptr %8, i64 4
  %21 = load float, ptr %20, align 4, !tbaa !79
  %22 = fpext float %21 to double
  %23 = getelementptr inbounds nuw i8, ptr %8, i64 8
  %24 = load float, ptr %23, align 8, !tbaa !79
  %25 = fpext float %24 to double
  %26 = getelementptr inbounds nuw i8, ptr %8, i64 12
  %27 = load float, ptr %26, align 4, !tbaa !79
  %28 = fpext float %27 to double
  %29 = getelementptr inbounds nuw i8, ptr %8, i64 16
  %30 = load float, ptr %29, align 16, !tbaa !79
  %31 = fpext float %30 to double
  %32 = getelementptr inbounds nuw i8, ptr %8, i64 20
  %33 = load float, ptr %32, align 4, !tbaa !79
  %34 = fpext float %33 to double
  %35 = getelementptr inbounds nuw i8, ptr %8, i64 24
  %36 = load float, ptr %35, align 8, !tbaa !79
  %37 = fpext float %36 to double
  %38 = getelementptr inbounds nuw i8, ptr %8, i64 28
  %39 = load float, ptr %38, align 4, !tbaa !79
  %40 = fpext float %39 to double
  %41 = getelementptr inbounds nuw i8, ptr %8, i64 32
  %42 = load float, ptr %41, align 16, !tbaa !79
  %43 = fpext float %42 to double
  br label %44

44:                                               ; preds = %.lr.ph, %44
  %.02530 = phi i64 [ 0, %.lr.ph ], [ %69, %44 ]
  %45 = shl i64 %.02530, 2
  %46 = getelementptr inbounds nuw float, ptr %0, i64 %45
  %47 = or disjoint i64 %45, 1
  %48 = getelementptr inbounds nuw float, ptr %0, i64 %47
  %49 = or disjoint i64 %45, 2
  %50 = getelementptr inbounds nuw float, ptr %0, i64 %49
  %51 = load float, ptr %46, align 4, !tbaa !79
  %52 = fpext float %51 to double
  %53 = load float, ptr %48, align 4, !tbaa !79
  %54 = fpext float %53 to double
  %55 = load float, ptr %50, align 4, !tbaa !79
  %56 = fpext float %55 to double
  %57 = fmul double %54, %22
  %58 = tail call double @llvm.fmuladd.f64(double %52, double %19, double %57)
  %59 = tail call double @llvm.fmuladd.f64(double %56, double %25, double %58)
  %60 = fptrunc double %59 to float
  store float %60, ptr %46, align 4, !tbaa !79
  %61 = fmul double %54, %31
  %62 = tail call double @llvm.fmuladd.f64(double %52, double %28, double %61)
  %63 = tail call double @llvm.fmuladd.f64(double %56, double %34, double %62)
  %64 = fptrunc double %63 to float
  store float %64, ptr %48, align 4, !tbaa !79
  %65 = fmul double %54, %40
  %66 = tail call double @llvm.fmuladd.f64(double %52, double %37, double %65)
  %67 = tail call double @llvm.fmuladd.f64(double %56, double %43, double %66)
  %68 = fptrunc double %67 to float
  store float %68, ptr %50, align 4, !tbaa !79
  %69 = add nuw i64 %.02530, 1
  %exitcond.not = icmp eq i64 %69, %mul.i29
  br i1 %exitcond.not, label %.loopexit, label %44, !llvm.loop !105

.loopexit:                                        ; preds = %44, %17, %13, %7
  %.0 = phi i32 [ 1, %7 ], [ 0, %13 ], [ 0, %17 ], [ 0, %44 ]
  call void @llvm.lifetime.end.p0(i64 36, ptr nonnull %8) #27
  ret i32 %.0
}